(dp0
S'asig_pisc_tel_asignacion_codigo_departamento'
p1
(dp2
S'rname'
p3
S'"asig_pisc_tel_asignacion_codigo_departamento"'
p4
sS'sortable'
p5
I6
sS'raw_rname'
p6
S'asig_pisc_tel_asignacion_codigo_departamento'
p7
sS'notnull'
p8
I00
sS'length'
p9
I512
sS'sql'
p10
S'CHAR(512)'
p11
sS'unique'
p12
I00
sS'type'
p13
S'string'
p14
ssS'asig_pisc_tel_asignacion_hora_creacion'
p15
(dp16
g3
S'"asig_pisc_tel_asignacion_hora_creacion"'
p17
sg5
I9
sg6
S'asig_pisc_tel_asignacion_hora_creacion'
p18
sg8
I00
sg9
I512
sg10
S'INTEGER'
p19
sg12
I00
sg13
S'integer'
p20
ssS'asig_pisc_tel_asignacion_codigo_cuidad'
p21
(dp22
g3
S'"asig_pisc_tel_asignacion_codigo_cuidad"'
p23
sg5
I5
sg6
S'asig_pisc_tel_asignacion_codigo_cuidad'
p24
sg8
I00
sg9
I512
sg10
S'CHAR(512)'
p25
sg12
I00
sg13
g14
ssS'asig_pisc_tel_asignacion_telefono'
p26
(dp27
g3
S'"asig_pisc_tel_asignacion_telefono"'
p28
sg5
I3
sg6
S'asig_pisc_tel_asignacion_telefono'
p29
sg8
I00
sg9
I512
sg10
S'CHAR(512)'
p30
sg12
I00
sg13
g14
ssS'asig_pisc_tel_asignacion_tipo_telefono'
p31
(dp32
g3
S'"asig_pisc_tel_asignacion_tipo_telefono"'
p33
sg5
I7
sg6
S'asig_pisc_tel_asignacion_tipo_telefono'
p34
sg8
I00
sg9
I512
sg10
S'CHAR(512)'
p35
sg12
I00
sg13
g14
ssS'id'
p36
(dp37
g3
S'"id"'
p38
sg5
I1
sg6
S'id'
p39
sg8
I00
sg9
I512
sg10
S'INTEGER PRIMARY KEY AUTOINCREMENT'
p40
sg12
I00
sg13
g39
ssS'asig_pisc_tel_asignacion_piscina'
p41
(dp42
g3
S'"asig_pisc_tel_asignacion_piscina"'
p43
sg5
I2
sg6
S'asig_pisc_tel_asignacion_piscina'
p44
sg8
I00
sg9
I512
sg10
S'INTEGER REFERENCES "asignacion_piscina" ("id") ON DELETE CASCADE  '
p45
sg12
I00
sg13
S'reference asignacion_piscina'
p46
ssS'asig_pisc_tel_asignacion_fecha_creacion'
p47
(dp48
g3
S'"asig_pisc_tel_asignacion_fecha_creacion"'
p49
sg5
I8
sg6
S'asig_pisc_tel_asignacion_fecha_creacion'
p50
sg8
I00
sg9
I512
sg10
S'INTEGER'
p51
sg12
I00
sg13
g20
ssS'asig_pisc_tel_asignacion_codigo_pais'
p52
(dp53
g3
S'"asig_pisc_tel_asignacion_codigo_pais"'
p54
sg5
I4
sg6
S'asig_pisc_tel_asignacion_codigo_pais'
p55
sg8
I00
sg9
I512
sg10
S'CHAR(512)'
p56
sg12
I00
sg13
g14
ss.